; Function Attrs: mustprogress nofree norecurse nosync nounwind willreturn memory(read, inaccessiblemem: none) uwtable
define dso_local noundef ptr @_ZNK4llvm20RISCVGenRegisterInfo21getSubClassWithSubRegEPKNS_19TargetRegisterClassEj(ptr nocapture noundef nonnull readonly align 8 dereferenceable(308) %0, ptr noundef readonly %1, i32 noundef %2) unnamed_addr #1 align 2 {
  %.not = icmp eq i32 %2, 0
  br i1 %.not, label %21, label %4

4:                                                ; preds = %3
  %5 = add i32 %2, -1
  %6 = load ptr, ptr %1, align 8
  %7 = getelementptr inbounds nuw i8, ptr %6, i64 24
  %8 = load i16, ptr %7, align 8
  %9 = zext i16 %8 to i64
  %10 = zext i32 %5 to i64
  %11 = getelementptr inbounds [87 x [52 x i8]], ptr @_ZZNK4llvm20RISCVGenRegisterInfo21getSubClassWithSubRegEPKNS_19TargetRegisterClassEjE5Table, i64 0, i64 %9, i64 %10
  %12 = load i8, ptr %11, align 1
  %.not10 = icmp eq i8 %12, 0
  br i1 %.not10, label %21, label %13

13:                                               ; preds = %4
  %14 = zext i8 %12 to i64
  %15 = add nuw nsw i64 %14, 4294967295
  %16 = getelementptr inbounds nuw i8, ptr %0, i64 264
  %17 = load ptr, ptr %16, align 8
  %18 = and i64 %15, 4294967295
  %19 = getelementptr inbounds ptr, ptr %17, i64 %18
  %20 = load ptr, ptr %19, align 8
  br label %21

21:                                               ; preds = %13, %4, %3
  %.0 = phi ptr [ %1, %3 ], [ %20, %13 ], [ null, %4 ]
  ret ptr %.0
}